target datalayout = "e-m:e-p270:32:32-p271:32:32-p272:64:64-i64:64-i128:128-f80:128-n8:16:32:64-S128"
target triple = "x86_64-pc-linux-gnu"

%class.Array = type { ptr, i64, i64, i64 }
%struct.DataSet = type { %class.CommandData, %class.Archive, %class.CmdExtract, i32, i32 }
%class.CommandData = type { %class.RAROptions, i8, i8, i32, i8, [2064 x i32], [2048 x i32], %class.StringList, %class.StringList, %class.StringList, %class.StringList, %class.StringList, %class.SecPassword, %"class.std::vector.0" }
%class.RAROptions = type { i32, i32, i8, i8, i8, i64, [2048 x i32], [2048 x i32], i32, i8, [2048 x i32], [2048 x i32], i32, i32, i32, i32, [2048 x i32], [2048 x i32], i8, i8, i8, [2048 x i32], i32, i32, i32, i32, i32, i32, i32, i32, i8, i8, i8, i8, i8, i32, i32, i8, i8, i8, i8, i8, i32, i32, i64, i32, i8, i8, i8, i32, i32, i8, i8, i8, i8, i32, i32, i8, i8, i8, i8, [128 x i32], [128 x i32], i8, i8, i8, i8, i8, %class.RarTime, %class.RarTime, %class.RarTime, i8, i8, i8, %class.RarTime, %class.RarTime, %class.RarTime, i8, i8, i8, i64, i64, i8, i8, i8, [16 x %struct.FilterMode], [2048 x i32], i32, i32, i32, i32, i32, i32, i8, [2048 x i32], i32, [2048 x i32], i32, i32, i64, ptr, ptr, ptr }
%class.RarTime = type { i64 }
%struct.FilterMode = type { i32, i32, i32 }
%class.StringList = type { %class.Array, i64, i64, [16 x i64], i64 }
%class.SecPassword = type <{ %"class.std::vector", i8, [7 x i8] }>
%"class.std::vector" = type { %"struct.std::_Vector_base" }
%"struct.std::_Vector_base" = type { %"struct.std::_Vector_base<wchar_t, std::allocator<wchar_t>>::_Vector_impl" }
%"struct.std::_Vector_base<wchar_t, std::allocator<wchar_t>>::_Vector_impl" = type { %"struct.std::_Vector_base<wchar_t, std::allocator<wchar_t>>::_Vector_impl_data" }
%"struct.std::_Vector_base<wchar_t, std::allocator<wchar_t>>::_Vector_impl_data" = type { ptr, ptr, ptr }
%"class.std::vector.0" = type { %"struct.std::_Vector_base.1" }
%"struct.std::_Vector_base.1" = type { %"struct.std::_Vector_base<long, std::allocator<long>>::_Vector_impl" }
%"struct.std::_Vector_base<long, std::allocator<long>>::_Vector_impl" = type { %"struct.std::_Vector_base<long, std::allocator<long>>::_Vector_impl_data" }
%"struct.std::_Vector_base<long, std::allocator<long>>::_Vector_impl_data" = type { ptr, ptr, ptr }
%class.Archive = type <{ %class.File, %class.CryptData, %class.ComprDataIO, i8, [7 x i8], ptr, %class.RarTime, i32, i32, i8, [7 x i8], %class.QuickOpen, i8, [3 x i8], %struct.BaseBlock, %struct.MarkHeader, [4 x i8], %struct.MainHeader, %struct.CryptHeader, [4 x i8], %struct.FileHeader, %struct.EndArcHeader, %struct.SubBlockHeader, [4 x i8], %struct.FileHeader, %struct.CommentHeader, %struct.ProtectHeader, %struct.EAHeader, %struct.StreamHeader, [4 x i8], i64, i64, i32, i8, i8, i8, i8, i8, i8, i8, i8, i8, [3 x i8], i64, i8, i8, [16 x i8], i8, i8, i32, i64, i64, i64, i8, [3 x i8], [2048 x i32], [4 x i8] }>
%class.File = type { ptr, i64, i8, i32, i8, i8, i32, i8, i8, i8, i8, i8, i64, i8, [2048 x i32], i32, ptr }
%class.CryptData = type { [4 x %"struct.CryptData::KDF3CacheItem"], i32, [4 x i8], [4 x %"struct.CryptData::KDF5CacheItem"], i32, i32, %class.Rijndael, [256 x i32], [256 x i8], [4 x i32], [3 x i8], [4 x i16], [4 x i8] }
%"struct.CryptData::KDF3CacheItem" = type { %class.SecPassword, [8 x i8], [16 x i8], [16 x i8], i8, [7 x i8] }
%"struct.CryptData::KDF5CacheItem" = type { %class.SecPassword, [16 x i8], [32 x i8], i32, [32 x i8], [32 x i8], [4 x i8] }
%class.Rijndael = type { i8, i32, [16 x i8], [15 x [4 x [4 x i8]]] }
%class.ComprDataIO = type <{ i8, [7 x i8], i64, ptr, i8, [7 x i8], i64, ptr, i64, ptr, i64, i64, i8, i8, i8, i8, [4 x i8], ptr, ptr, ptr, ptr, ptr, ptr, ptr, i32, i32, i8, i8, i8, [5 x i8], i64, i64, i64, i64, i64, i64, i64, %class.DataHash, %class.DataHash, %class.DataHash, i8, i8, [6 x i8] }>
%class.DataHash = type { i32, i32, ptr }
%class.QuickOpen = type <{ ptr, i8, [7 x i8], ptr, ptr, ptr, i64, %class.CryptData, i8, [7 x i8], i64, i64, i64, i64, i64, i64, %class.Array.5, i64, i64, i8, [7 x i8] }>
%class.Array.5 = type { ptr, i64, i64, i64 }
%struct.BaseBlock = type { i32, i32, i32, i32, i8 }
%struct.MarkHeader = type { [8 x i8], i32 }
%struct.MainHeader = type { %struct.BaseBlock, i16, i32, i8, i8, i8, i64, i64, i64, i64, i64, %"class.std::__cxx11::basic_string", %class.RarTime }
%"class.std::__cxx11::basic_string" = type { %"struct.std::__cxx11::basic_string<wchar_t>::_Alloc_hider", i64, %union.anon }
%"struct.std::__cxx11::basic_string<wchar_t>::_Alloc_hider" = type { ptr }
%union.anon = type { i64, [8 x i8] }
%struct.CryptHeader = type { %struct.BaseBlock, i8, i32, [16 x i8], [8 x i8] }
%struct.EndArcHeader = type { %struct.BaseBlock, i32, i32, i8, i8, i8, i8 }
%struct.SubBlockHeader = type <{ %struct.BlockHeader, i16, i8, i8 }>
%struct.BlockHeader = type { %struct.BaseBlock, i32 }
%struct.FileHeader = type { %struct.BlockHeader, i8, i32, i8, %union.anon.6, [2048 x i32], %class.Array.5, %class.RarTime, %class.RarTime, %class.RarTime, i64, i64, i64, %struct.HashValue, i32, i8, i8, i8, i8, i32, i8, [16 x i8], [16 x i8], i8, [8 x i8], i8, [32 x i8], i32, i8, i8, i8, i8, i64, i8, i8, i8, i32, i32, [2048 x i32], i8, i8, i8, i8, [256 x i8], [256 x i8], i32, i32 }
%union.anon.6 = type { i32 }
%struct.HashValue = type { i32, %union.anon.7 }
%union.anon.7 = type { i32, [28 x i8] }
%struct.CommentHeader = type <{ %struct.BaseBlock, i16, i8, i8, i16, [2 x i8] }>
%struct.ProtectHeader = type { %struct.BlockHeader, i8, i16, i32, [8 x i8] }
%struct.EAHeader = type { %struct.SubBlockHeader.base, i32, i8, i8, i32 }
%struct.SubBlockHeader.base = type <{ %struct.BlockHeader, i16, i8 }>
%struct.StreamHeader = type <{ %struct.SubBlockHeader.base, i8, i32, i8, i8, [2 x i8], i32, i16, [260 x i8], [2 x i8] }>
%class.CmdExtract = type { %class.Array.8, ptr, i8, %class.RarTime, ptr, %class.ComprDataIO, ptr, i64, i64, i64, i8, i8, i8, i8, i8, [2048 x i32], i8, i8, [2048 x i32], i8, i8, %"class.std::__cxx11::basic_string" }
%class.Array.8 = type { ptr, i64, i64, i64 }

@_ZTI8RAR_EXIT = linkonce_odr constant { ptr, ptr } { ptr getelementptr inbounds (ptr, ptr @_ZTVN10__cxxabiv116__enum_type_infoE, i64 2), ptr @_ZTS8RAR_EXIT }, comdat, align 8

; Function Attrs: mustprogress nounwind uwtable
define linkonce_odr void @_ZN7DataSetD2Ev(ptr noundef nonnull align 8 dereferenceable(174824) %0) unnamed_addr #5 comdat align 2 {
  %2 = alloca ptr, align 8
  store ptr %0, ptr %2, align 8
  %3 = load ptr, ptr %2, align 8
  %4 = getelementptr inbounds %struct.DataSet, ptr %3, i32 0, i32 2
  call void @_ZN10CmdExtractD1Ev(ptr noundef nonnull align 8 dereferenceable(16800) %4) #15
  %5 = getelementptr inbounds %struct.DataSet, ptr %3, i32 0, i32 1
  call void @_ZN7ArchiveD1Ev(ptr noundef nonnull align 8 dereferenceable(57108) %5) #15
  %6 = getelementptr inbounds %struct.DataSet, ptr %3, i32 0, i32 0
  call void @_ZN11CommandDataD2Ev(ptr noundef nonnull align 8 dereferenceable(100904) %6) #15
  ret void
}

; Function Attrs: mustprogress uwtable
define i32 @RARCloseArchive(ptr noundef %0) #0 personality ptr @__gxx_personality_v0 {
  %2 = alloca i32, align 4
  %3 = alloca ptr, align 8
  %4 = alloca ptr, align 8
  %5 = alloca i8, align 1
  %6 = alloca ptr, align 8
  %7 = alloca i32, align 4
  %8 = alloca i32, align 4
  store ptr %0, ptr %3, align 8
  %9 = load ptr, ptr %3, align 8
  store ptr %9, ptr %4, align 8
  %10 = load ptr, ptr %4, align 8
  %11 = icmp eq ptr %10, null
  br i1 %11, label %12, label %13

12:                                               ; preds = %1
  br label %18

13:                                               ; preds = %1
  %14 = load ptr, ptr %4, align 8
  %15 = getelementptr inbounds %struct.DataSet, ptr %14, i32 0, i32 1
  %16 = invoke noundef zeroext i1 @_ZN4File5CloseEv(ptr noundef nonnull align 8 dereferenceable(8256) %15)
          to label %17 unwind label %28

17:                                               ; preds = %13
  br label %18

18:                                               ; preds = %17, %12
  %19 = phi i1 [ false, %12 ], [ %16, %17 ]
  %20 = zext i1 %19 to i8
  store i8 %20, ptr %5, align 1
  %21 = load ptr, ptr %4, align 8
  %22 = icmp eq ptr %21, null
  br i1 %22, label %24, label %23

23:                                               ; preds = %18
  call void @_ZN7DataSetD2Ev(ptr noundef nonnull align 8 dereferenceable(174824) %21) #15
  call void @_ZdlPv(ptr noundef %21) #14
  br label %24

24:                                               ; preds = %23, %18
  %25 = load i8, ptr %5, align 1
  %26 = trunc i8 %25 to i1
  %27 = select i1 %26, i32 0, i32 17
  store i32 %27, ptr %2, align 4
  br label %61

28:                                               ; preds = %13
  %29 = landingpad { ptr, i32 }
          catch ptr @_ZTI8RAR_EXIT
  %30 = extractvalue { ptr, i32 } %29, 0
  store ptr %30, ptr %6, align 8
  %31 = extractvalue { ptr, i32 } %29, 1
  store i32 %31, ptr %7, align 4
  br label %32

32:                                               ; preds = %28
  %33 = load i32, ptr %7, align 4
  %34 = call i32 @llvm.eh.typeid.for(ptr @_ZTI8RAR_EXIT) #15
  %35 = icmp eq i32 %33, %34
  br i1 %35, label %36, label %63

36:                                               ; preds = %32
  %37 = load ptr, ptr %6, align 8
  %38 = call ptr @__cxa_begin_catch(ptr %37) #15
  %39 = load i32, ptr %38, align 4
  store i32 %39, ptr %8, align 4
  %40 = load ptr, ptr %4, align 8
  %41 = getelementptr inbounds %struct.DataSet, ptr %40, i32 0, i32 0
  %42 = getelementptr inbounds %class.RAROptions, ptr %41, i32 0, i32 98
  %43 = load i32, ptr %42, align 8
  %44 = icmp ne i32 %43, 0
  br i1 %44, label %45, label %50

45:                                               ; preds = %36
  %46 = load ptr, ptr %4, align 8
  %47 = getelementptr inbounds %struct.DataSet, ptr %46, i32 0, i32 0
  %48 = getelementptr inbounds %class.RAROptions, ptr %47, i32 0, i32 98
  %49 = load i32, ptr %48, align 8
  br label %54

50:                                               ; preds = %36
  %51 = load i32, ptr %8, align 4
  %52 = invoke noundef i32 @_ZL13RarErrorToDll8RAR_EXIT(i32 noundef %51)
          to label %53 unwind label %56

53:                                               ; preds = %50
  br label %54

54:                                               ; preds = %53, %45
  %55 = phi i32 [ %49, %45 ], [ %52, %53 ]
  store i32 %55, ptr %2, align 4
  call void @__cxa_end_catch() #15
  br label %61

56:                                               ; preds = %50
  %57 = landingpad { ptr, i32 }
          cleanup
  %58 = extractvalue { ptr, i32 } %57, 0
  store ptr %58, ptr %6, align 8
  %59 = extractvalue { ptr, i32 } %57, 1
  store i32 %59, ptr %7, align 4
  call void @__cxa_end_catch() #15
  br label %63

60:                                               ; No predecessors!
  call void @llvm.trap()
  unreachable

61:                                               ; preds = %54, %24
  %62 = load i32, ptr %2, align 4
  ret i32 %62

63:                                               ; preds = %56, %32
  %64 = load ptr, ptr %6, align 8
  %65 = load i32, ptr %7, align 4
  %66 = insertvalue { ptr, i32 } poison, ptr %64, 0
  %67 = insertvalue { ptr, i32 } %66, i32 %65, 1
  resume { ptr, i32 } %67
}