; Function Attrs: mustprogress uwtable
define i32 @RARCloseArchive(ptr noundef %0) local_unnamed_addr #0 personality ptr @__gxx_personality_v0 {
  %2 = icmp eq ptr %0, null
  br i1 %2, label %.thread14, label %3

3:                                                ; preds = %1
  %4 = getelementptr inbounds nuw i8, ptr %0, i64 100904
  %5 = invoke noundef zeroext i1 @_ZN4File5CloseEv(ptr noundef nonnull align 8 dereferenceable(8256) %4)
          to label %6 unwind label %8

6:                                                ; preds = %3
  %7 = getelementptr inbounds nuw i8, ptr %0, i64 158016
  tail call void @_ZN10CmdExtractD1Ev(ptr noundef nonnull align 8 dereferenceable(16800) %7) #17
  tail call void @_ZN7ArchiveD1Ev(ptr noundef nonnull align 8 dereferenceable(57108) %4) #17
  tail call void @_ZN11CommandDataD2Ev(ptr noundef nonnull align 8 dereferenceable(174824) %0) #17
  tail call void @_ZdlPv(ptr noundef nonnull %0) #18
  %spec.select = select i1 %5, i32 0, i32 17
  br label %.thread14

8:                                                ; preds = %3
  %9 = landingpad { ptr, i32 }
          catch ptr @_ZTI8RAR_EXIT
  %10 = extractvalue { ptr, i32 } %9, 1
  %11 = tail call i32 @llvm.eh.typeid.for.p0(ptr nonnull @_ZTI8RAR_EXIT) #17
  %12 = icmp eq i32 %10, %11
  br i1 %12, label %13, label %23

13:                                               ; preds = %8
  %14 = extractvalue { ptr, i32 } %9, 0
  %15 = tail call ptr @__cxa_begin_catch(ptr %14) #17
  %16 = getelementptr inbounds nuw i8, ptr %0, i64 83424
  %17 = load i32, ptr %16, align 8
  %.not = icmp eq i32 %17, 0
  br i1 %.not, label %18, label %21

18:                                               ; preds = %13
  %19 = load i32, ptr %15, align 4
  %20 = tail call fastcc noundef i32 @_ZL13RarErrorToDll8RAR_EXIT(i32 noundef %19)
  br label %21

21:                                               ; preds = %13, %18
  %22 = phi i32 [ %20, %18 ], [ %17, %13 ]
  tail call void @__cxa_end_catch() #17
  br label %.thread14

.thread14:                                        ; preds = %6, %1, %21
  %.0 = phi i32 [ %22, %21 ], [ 17, %1 ], [ %spec.select, %6 ]
  ret i32 %.0

23:                                               ; preds = %8
  resume { ptr, i32 } %9
}